target datalayout = "e-m:e-p270:32:32-p271:32:32-p272:64:64-i64:64-i128:128-f80:128-n8:16:32:64-S128"
target triple = "x86_64-unknown-linux-gnu"

%struct.UResourceBundle = type { ptr, ptr, ptr, ptr, ptr, [64 x i8], i32, i32, i8, i8, i32, i32, i32, i32 }
%struct.UResourceDataEntry = type { ptr, ptr, ptr, ptr, ptr, %struct.ResourceData, [3 x i8], i32, i32 }
%struct.ResourceData = type { ptr, ptr, ptr, ptr, i32, i32, ptr, i32, i32, i8, i8, i8, i8 }
%"class.icu_75::ResourceTracer" = type { i8 }

@.str.12 = private unnamed_addr constant [7 x i8] c"string\00", align 1

; Function Attrs: mustprogress nounwind uwtable
define linkonce_odr void @_ZNK6icu_7514ResourceTracer5traceEPKc(ptr noundef nonnull align 1 dereferenceable(1) %this, ptr noundef %0) #0 comdat align 2 {
entry:
  %this.addr = alloca ptr, align 8
  %.addr = alloca ptr, align 8
  store ptr %this, ptr %this.addr, align 8
  store ptr %0, ptr %.addr, align 8
  ret void
}

; Function Attrs: mustprogress uwtable
define linkonce_odr noundef ptr @_ZN6icu_7513res_getStringERKNS_14ResourceTracerEPK12ResourceDatajPi(ptr noundef nonnull align 1 dereferenceable(1) %traceInfo, ptr noundef %pResData, i32 noundef %res, ptr noundef %pLength) #1 comdat {
entry:
  %traceInfo.addr = alloca ptr, align 8
  %pResData.addr = alloca ptr, align 8
  %res.addr = alloca i32, align 4
  %pLength.addr = alloca ptr, align 8
  store ptr %traceInfo, ptr %traceInfo.addr, align 8
  store ptr %pResData, ptr %pResData.addr, align 8
  store i32 %res, ptr %res.addr, align 4
  store ptr %pLength, ptr %pLength.addr, align 8
  %0 = load ptr, ptr %traceInfo.addr, align 8
  call void @_ZNK6icu_7514ResourceTracer5traceEPKc(ptr noundef nonnull align 1 dereferenceable(1) %0, ptr noundef @.str.12)
  %1 = load ptr, ptr %pResData.addr, align 8
  %2 = load i32, ptr %res.addr, align 4
  %3 = load ptr, ptr %pLength.addr, align 8
  %call = call ptr @res_getStringNoTrace_75(ptr noundef %1, i32 noundef %2, ptr noundef %3)
  ret ptr %call
}

; Function Attrs: mustprogress nounwind uwtable
define linkonce_odr noundef nonnull align 8 dereferenceable(64) ptr @_ZNK15UResourceBundle10getResDataEv(ptr noundef nonnull align 8 dereferenceable(136) %this) #0 comdat align 2 {
entry:
  %this.addr = alloca ptr, align 8
  store ptr %this, ptr %this.addr, align 8
  %this1 = load ptr, ptr %this.addr, align 8
  %fData = getelementptr inbounds %struct.UResourceBundle, ptr %this1, i32 0, i32 1
  %0 = load ptr, ptr %fData, align 8
  %fData2 = getelementptr inbounds %struct.UResourceDataEntry, ptr %0, i32 0, i32 5
  ret ptr %fData2
}

; Function Attrs: mustprogress nounwind uwtable
define linkonce_odr void @_ZN6icu_7514ResourceTracerC2EPKv(ptr noundef nonnull align 1 dereferenceable(1) %this, ptr noundef %0) unnamed_addr #0 comdat align 2 {
entry:
  %this.addr = alloca ptr, align 8
  %.addr = alloca ptr, align 8
  store ptr %this, ptr %this.addr, align 8
  store ptr %0, ptr %.addr, align 8
  ret void
}

; Function Attrs: mustprogress nounwind uwtable
define internal void @_ZL21ures_setIsStackObjectP15UResourceBundlea(ptr noundef %resB, i8 noundef signext %state) #0 {
entry:
  %resB.addr = alloca ptr, align 8
  %state.addr = alloca i8, align 1
  store ptr %resB, ptr %resB.addr, align 8
  store i8 %state, ptr %state.addr, align 1
  %0 = load i8, ptr %state.addr, align 1
  %tobool = icmp ne i8 %0, 0
  br i1 %tobool, label %if.then, label %if.else

if.then:                                          ; preds = %entry
  %1 = load ptr, ptr %resB.addr, align 8
  %fMagic1 = getelementptr inbounds %struct.UResourceBundle, ptr %1, i32 0, i32 10
  store i32 0, ptr %fMagic1, align 4
  %2 = load ptr, ptr %resB.addr, align 8
  %fMagic2 = getelementptr inbounds %struct.UResourceBundle, ptr %2, i32 0, i32 11
  store i32 0, ptr %fMagic2, align 8
  br label %if.end

if.else:                                          ; preds = %entry
  %3 = load ptr, ptr %resB.addr, align 8
  %fMagic11 = getelementptr inbounds %struct.UResourceBundle, ptr %3, i32 0, i32 10
  store i32 19700503, ptr %fMagic11, align 4
  %4 = load ptr, ptr %resB.addr, align 8
  %fMagic22 = getelementptr inbounds %struct.UResourceBundle, ptr %4, i32 0, i32 11
  store i32 19641227, ptr %fMagic22, align 8
  br label %if.end

if.end:                                           ; preds = %if.else, %if.then
  ret void
}

; Function Attrs: mustprogress nounwind uwtable
define internal noundef signext i8 @_ZL9U_FAILURE10UErrorCode(i32 noundef %code) #0 {
entry:
  %code.addr = alloca i32, align 4
  store i32 %code, ptr %code.addr, align 4
  %0 = load i32, ptr %code.addr, align 4
  %cmp = icmp sgt i32 %0, 0
  %conv = zext i1 %cmp to i8
  ret i8 %conv
}

; Function Attrs: mustprogress uwtable
define void @ures_close_75(ptr noundef %resB) #1 {
entry:
  %resB.addr = alloca ptr, align 8
  store ptr %resB, ptr %resB.addr, align 8
  %0 = load ptr, ptr %resB.addr, align 8
  call void @_ZL16ures_closeBundleP15UResourceBundlea(ptr noundef %0, i8 noundef signext 1)
  ret void
}

; Function Attrs: mustprogress uwtable
define ptr @ures_getString_75(ptr noundef %resB, ptr noundef %len, ptr noundef %status) #1 {
entry:
  %retval = alloca ptr, align 8
  %resB.addr = alloca ptr, align 8
  %len.addr = alloca ptr, align 8
  %status.addr = alloca ptr, align 8
  %s = alloca ptr, align 8
  %ref.tmp = alloca %"class.icu_75::ResourceTracer", align 1
  store ptr %resB, ptr %resB.addr, align 8
  store ptr %len, ptr %len.addr, align 8
  store ptr %status, ptr %status.addr, align 8
  %0 = load ptr, ptr %status.addr, align 8
  %cmp = icmp eq ptr %0, null
  br i1 %cmp, label %if.then, label %lor.lhs.false

lor.lhs.false:                                    ; preds = %entry
  %1 = load ptr, ptr %status.addr, align 8
  %2 = load i32, ptr %1, align 4
  %call = call noundef signext i8 @_ZL9U_FAILURE10UErrorCode(i32 noundef %2)
  %tobool = icmp ne i8 %call, 0
  br i1 %tobool, label %if.then, label %if.end

if.then:                                          ; preds = %lor.lhs.false, %entry
  store ptr null, ptr %retval, align 8
  br label %return

if.end:                                           ; preds = %lor.lhs.false
  %3 = load ptr, ptr %resB.addr, align 8
  %cmp1 = icmp eq ptr %3, null
  br i1 %cmp1, label %if.then2, label %if.end3

if.then2:                                         ; preds = %if.end
  %4 = load ptr, ptr %status.addr, align 8
  store i32 1, ptr %4, align 4
  store ptr null, ptr %retval, align 8
  br label %return

if.end3:                                          ; preds = %if.end
  %5 = load ptr, ptr %resB.addr, align 8
  call void @_ZN6icu_7514ResourceTracerC2EPKv(ptr noundef nonnull align 1 dereferenceable(1) %ref.tmp, ptr noundef %5)
  %6 = load ptr, ptr %resB.addr, align 8
  %call4 = call noundef nonnull align 8 dereferenceable(64) ptr @_ZNK15UResourceBundle10getResDataEv(ptr noundef nonnull align 8 dereferenceable(136) %6)
  %7 = load ptr, ptr %resB.addr, align 8
  %fRes = getelementptr inbounds %struct.UResourceBundle, ptr %7, i32 0, i32 7
  %8 = load i32, ptr %fRes, align 4
  %9 = load ptr, ptr %len.addr, align 8
  %call5 = call noundef ptr @_ZN6icu_7513res_getStringERKNS_14ResourceTracerEPK12ResourceDatajPi(ptr noundef nonnull align 1 dereferenceable(1) %ref.tmp, ptr noundef %call4, i32 noundef %8, ptr noundef %9)
  store ptr %call5, ptr %s, align 8
  %10 = load ptr, ptr %s, align 8
  %cmp6 = icmp eq ptr %10, null
  br i1 %cmp6, label %if.then7, label %if.end8

if.then7:                                         ; preds = %if.end3
  %11 = load ptr, ptr %status.addr, align 8
  store i32 17, ptr %11, align 4
  br label %if.end8

if.end8:                                          ; preds = %if.then7, %if.end3
  %12 = load ptr, ptr %s, align 8
  store ptr %12, ptr %retval, align 8
  br label %return

return:                                           ; preds = %if.end8, %if.then2, %if.then
  %13 = load ptr, ptr %retval, align 8
  ret ptr %13
}

; Function Attrs: mustprogress uwtable
define void @ures_initStackObject_75(ptr noundef %resB) #1 {
entry:
  %resB.addr = alloca ptr, align 8
  store ptr %resB, ptr %resB.addr, align 8
  %0 = load ptr, ptr %resB.addr, align 8
  call void @llvm.memset.p0.i64(ptr align 8 %0, i8 0, i64 136, i1 false)
  %1 = load ptr, ptr %resB.addr, align 8
  call void @_ZL21ures_setIsStackObjectP15UResourceBundlea(ptr noundef %1, i8 noundef signext 1)
  ret void
}

; Function Attrs: mustprogress uwtable
define ptr @ures_getStringByKeyWithFallback_75(ptr noundef %resB, ptr noundef %inKey, ptr noundef %len, ptr noundef %status) #1 {
entry:
  %retval = alloca ptr, align 8
  %resB.addr = alloca ptr, align 8
  %inKey.addr = alloca ptr, align 8
  %len.addr = alloca ptr, align 8
  %status.addr = alloca ptr, align 8
  %stack = alloca %struct.UResourceBundle, align 8
  %retVal = alloca ptr, align 8
  %length = alloca i32, align 4
  store ptr %resB, ptr %resB.addr, align 8
  store ptr %inKey, ptr %inKey.addr, align 8
  store ptr %len, ptr %len.addr, align 8
  store ptr %status, ptr %status.addr, align 8
  store ptr null, ptr %retVal, align 8
  call void @ures_initStackObject_75(ptr noundef %stack)
  %0 = load ptr, ptr %resB.addr, align 8
  %1 = load ptr, ptr %inKey.addr, align 8
  %2 = load ptr, ptr %status.addr, align 8
  %call = call ptr @ures_getByKeyWithFallback_75(ptr noundef %0, ptr noundef %1, ptr noundef %stack, ptr noundef %2)
  %3 = load ptr, ptr %status.addr, align 8
  %call1 = call ptr @ures_getString_75(ptr noundef %stack, ptr noundef %length, ptr noundef %3)
  store ptr %call1, ptr %retVal, align 8
  call void @ures_close_75(ptr noundef %stack)
  %4 = load ptr, ptr %status.addr, align 8
  %5 = load i32, ptr %4, align 4
  %call2 = call noundef signext i8 @_ZL9U_FAILURE10UErrorCode(i32 noundef %5)
  %tobool = icmp ne i8 %call2, 0
  br i1 %tobool, label %if.then, label %if.end

if.then:                                          ; preds = %entry
  store ptr null, ptr %retval, align 8
  br label %return

if.end:                                           ; preds = %entry
  %6 = load i32, ptr %length, align 4
  %cmp = icmp eq i32 %6, 3
  br i1 %cmp, label %land.lhs.true, label %if.end13

land.lhs.true:                                    ; preds = %if.end
  %7 = load ptr, ptr %retVal, align 8
  %arrayidx = getelementptr inbounds i16, ptr %7, i64 0
  %8 = load i16, ptr %arrayidx, align 2
  %conv = zext i16 %8 to i32
  %cmp3 = icmp eq i32 %conv, 8709
  br i1 %cmp3, label %land.lhs.true4, label %if.end13

land.lhs.true4:                                   ; preds = %land.lhs.true
  %9 = load ptr, ptr %retVal, align 8
  %arrayidx5 = getelementptr inbounds i16, ptr %9, i64 1
  %10 = load i16, ptr %arrayidx5, align 2
  %conv6 = zext i16 %10 to i32
  %cmp7 = icmp eq i32 %conv6, 8709
  br i1 %cmp7, label %land.lhs.true8, label %if.end13

land.lhs.true8:                                   ; preds = %land.lhs.true4
  %11 = load ptr, ptr %retVal, align 8
  %arrayidx9 = getelementptr inbounds i16, ptr %11, i64 2
  %12 = load i16, ptr %arrayidx9, align 2
  %conv10 = zext i16 %12 to i32
  %cmp11 = icmp eq i32 %conv10, 8709
  br i1 %cmp11, label %if.then12, label %if.end13

if.then12:                                        ; preds = %land.lhs.true8
  store ptr null, ptr %retVal, align 8
  store i32 0, ptr %length, align 4
  %13 = load ptr, ptr %status.addr, align 8
  store i32 2, ptr %13, align 4
  br label %if.end13

if.end13:                                         ; preds = %if.then12, %land.lhs.true8, %land.lhs.true4, %land.lhs.true, %if.end
  %14 = load ptr, ptr %len.addr, align 8
  %cmp14 = icmp ne ptr %14, null
  br i1 %cmp14, label %if.then15, label %if.end16

if.then15:                                        ; preds = %if.end13
  %15 = load i32, ptr %length, align 4
  %16 = load ptr, ptr %len.addr, align 8
  store i32 %15, ptr %16, align 4
  br label %if.end16

if.end16:                                         ; preds = %if.then15, %if.end13
  %17 = load ptr, ptr %retVal, align 8
  store ptr %17, ptr %retval, align 8
  br label %return

return:                                           ; preds = %if.end16, %if.then
  %18 = load ptr, ptr %retval, align 8
  ret ptr %18
}