; Function Attrs: mustprogress uwtable
define noundef ptr @ures_getStringByKeyWithFallback_75(ptr noundef %resB, ptr noundef %inKey, ptr noundef writeonly %len, ptr noundef %status) local_unnamed_addr #1 {
entry:
  %stack = alloca %struct.UResourceBundle, align 8
  %length = alloca i32, align 4
  call void @llvm.memset.p0.i64(ptr noundef nonnull align 8 dereferenceable(136) %stack, i8 0, i64 136, i1 false)
  %call = call ptr @ures_getByKeyWithFallback_75(ptr noundef %resB, ptr noundef %inKey, ptr noundef nonnull %stack, ptr noundef %status)
  %cmp.i = icmp eq ptr %status, null
  br i1 %cmp.i, label %ures_getString_75.exit, label %lor.lhs.false.i

lor.lhs.false.i:                                  ; preds = %entry
  %0 = load i32, ptr %status, align 4
  %cmp.i.i = icmp slt i32 %0, 1
  br i1 %cmp.i.i, label %if.end.i, label %ures_getString_75.exit

if.end.i:                                         ; preds = %lor.lhs.false.i
  %fData.i.i = getelementptr inbounds i8, ptr %stack, i64 8
  %1 = load ptr, ptr %fData.i.i, align 8
  %fData2.i.i = getelementptr inbounds i8, ptr %1, i64 40
  %fRes.i = getelementptr inbounds i8, ptr %stack, i64 108
  %2 = load i32, ptr %fRes.i, align 4
  %call.i.i = call noundef ptr @res_getStringNoTrace_75(ptr noundef nonnull %fData2.i.i, i32 noundef %2, ptr noundef nonnull %length)
  %cmp6.i = icmp eq ptr %call.i.i, null
  br i1 %cmp6.i, label %return.sink.split.i, label %ures_getString_75.exit

return.sink.split.i:                              ; preds = %if.end.i
  store i32 17, ptr %status, align 4
  br label %ures_getString_75.exit

ures_getString_75.exit:                           ; preds = %entry, %lor.lhs.false.i, %if.end.i, %return.sink.split.i
  %retval.0.i = phi ptr [ null, %lor.lhs.false.i ], [ null, %entry ], [ %call.i.i, %if.end.i ], [ null, %return.sink.split.i ]
  call fastcc void @_ZL16ures_closeBundleP15UResourceBundlea(ptr noundef nonnull %stack, i8 noundef signext 1)
  %3 = load i32, ptr %status, align 4
  %cmp.i8 = icmp slt i32 %3, 1
  br i1 %cmp.i8, label %if.end, label %return

if.end:                                           ; preds = %ures_getString_75.exit
  %4 = load i32, ptr %length, align 4
  %cmp = icmp eq i32 %4, 3
  br i1 %cmp, label %land.lhs.true, label %if.end13

land.lhs.true:                                    ; preds = %if.end
  %5 = load i16, ptr %retval.0.i, align 2
  %cmp3 = icmp eq i16 %5, 8709
  br i1 %cmp3, label %land.lhs.true4, label %if.end13

land.lhs.true4:                                   ; preds = %land.lhs.true
  %arrayidx5 = getelementptr inbounds i8, ptr %retval.0.i, i64 2
  %6 = load i16, ptr %arrayidx5, align 2
  %cmp7 = icmp eq i16 %6, 8709
  br i1 %cmp7, label %land.lhs.true8, label %if.end13

land.lhs.true8:                                   ; preds = %land.lhs.true4
  %arrayidx9 = getelementptr inbounds i8, ptr %retval.0.i, i64 4
  %7 = load i16, ptr %arrayidx9, align 2
  %cmp11 = icmp eq i16 %7, 8709
  br i1 %cmp11, label %if.then12, label %if.end13

if.then12:                                        ; preds = %land.lhs.true8
  store i32 2, ptr %status, align 4
  br label %if.end13

if.end13:                                         ; preds = %if.then12, %land.lhs.true8, %land.lhs.true4, %land.lhs.true, %if.end
  %8 = phi i32 [ 0, %if.then12 ], [ 3, %land.lhs.true8 ], [ 3, %land.lhs.true4 ], [ 3, %land.lhs.true ], [ %4, %if.end ]
  %retVal.0 = phi ptr [ null, %if.then12 ], [ %retval.0.i, %land.lhs.true8 ], [ %retval.0.i, %land.lhs.true4 ], [ %retval.0.i, %land.lhs.true ], [ %retval.0.i, %if.end ]
  %cmp14.not = icmp eq ptr %len, null
  br i1 %cmp14.not, label %return, label %if.then15

if.then15:                                        ; preds = %if.end13
  store i32 %8, ptr %len, align 4
  br label %return

return:                                           ; preds = %if.end13, %if.then15, %ures_getString_75.exit
  %retval.0 = phi ptr [ null, %ures_getString_75.exit ], [ %retVal.0, %if.then15 ], [ %retVal.0, %if.end13 ]
  ret ptr %retval.0
}